#include <math.h>
#include <stdio.h>
#include <stdlib.h>
#include <string.h>

int main()
{
	int a[100][100],b[100][100];
	int c[100][100]={0
	};
	int x1,y1,x2,y2,i,j;
	scanf("%d %d",&x1,&y1);
	for(i=0;i<x1;i++)
	{ for(j=0;j<y1;j++)
	   scanf("%d",&a[i][j]);
	}
	scanf("%d %d",&x2,&y2);
	for(i=0;i<x2;i++)
    { for(j=0;j<y2;j++)
     scanf("%d",&b[i][j]);
    } 
    int m=x1,n=y2,temp;
    for(i=0;i<m;i++)
    { for(j=0;j<n;j++)
      {
      	for(temp=0;temp<y1;temp++)
      	c[i][j]+=a[i][temp]*b[temp][j];
      }
    }
    for(i=0;i<m;i++)
    {
    	for(j=0;j<n-1;j++)
    	{
	    	printf("%d ",c[i][j]);
	    }
	    printf("%d",c[i][n-1]);
	    printf("\n");
    }
    return 0;
}