; ModuleID = '63/1299.c'
source_filename = "63/1299.c"
target datalayout = "e-m:e-p270:32:32-p271:32:32-p272:64:64-i64:64-f80:128-n8:16:32:64-S128"
target triple = "x86_64-pc-linux-gnu"

@.str = private unnamed_addr constant [6 x i8] c"%d %d\00", align 1
@.str.1 = private unnamed_addr constant [3 x i8] c"%d\00", align 1
@.str.2 = private unnamed_addr constant [4 x i8] c"%d \00", align 1
@.str.3 = private unnamed_addr constant [2 x i8] c"\0A\00", align 1

; Function Attrs: noinline nounwind uwtable
define dso_local i32 @main() #0 {
  %1 = alloca i32, align 4
  %2 = alloca [100 x [100 x i32]], align 16
  %3 = alloca [100 x [100 x i32]], align 16
  %4 = alloca [100 x [100 x i32]], align 16
  %5 = alloca i32, align 4
  %6 = alloca i32, align 4
  %7 = alloca i32, align 4
  %8 = alloca i32, align 4
  %9 = alloca i32, align 4
  %10 = alloca i32, align 4
  %11 = alloca i32, align 4
  %12 = alloca i32, align 4
  %13 = alloca i32, align 4
  store i32 0, i32* %1, align 4
  %14 = bitcast [100 x [100 x i32]]* %4 to i8*
  call void @llvm.memset.p0i8.i64(i8* align 16 %14, i8 0, i64 40000, i1 false)
  %15 = call i32 (i8*, ...) @__isoc99_scanf(i8* getelementptr inbounds ([6 x i8], [6 x i8]* @.str, i64 0, i64 0), i32* %5, i32* %6)
  store i32 0, i32* %9, align 4
  br label %16

16:                                               ; preds = %37, %0
  %17 = load i32, i32* %9, align 4
  %18 = load i32, i32* %5, align 4
  %19 = icmp slt i32 %17, %18
  br i1 %19, label %20, label %40

20:                                               ; preds = %16
  store i32 0, i32* %10, align 4
  br label %21

21:                                               ; preds = %33, %20
  %22 = load i32, i32* %10, align 4
  %23 = load i32, i32* %6, align 4
  %24 = icmp slt i32 %22, %23
  br i1 %24, label %25, label %36

25:                                               ; preds = %21
  %26 = load i32, i32* %9, align 4
  %27 = sext i32 %26 to i64
  %28 = getelementptr inbounds [100 x [100 x i32]], [100 x [100 x i32]]* %2, i64 0, i64 %27
  %29 = load i32, i32* %10, align 4
  %30 = sext i32 %29 to i64
  %31 = getelementptr inbounds [100 x i32], [100 x i32]* %28, i64 0, i64 %30
  %32 = call i32 (i8*, ...) @__isoc99_scanf(i8* getelementptr inbounds ([3 x i8], [3 x i8]* @.str.1, i64 0, i64 0), i32* %31)
  br label %33

33:                                               ; preds = %25
  %34 = load i32, i32* %10, align 4
  %35 = add nsw i32 %34, 1
  store i32 %35, i32* %10, align 4
  br label %21

36:                                               ; preds = %21
  br label %37

37:                                               ; preds = %36
  %38 = load i32, i32* %9, align 4
  %39 = add nsw i32 %38, 1
  store i32 %39, i32* %9, align 4
  br label %16

40:                                               ; preds = %16
  %41 = call i32 (i8*, ...) @__isoc99_scanf(i8* getelementptr inbounds ([6 x i8], [6 x i8]* @.str, i64 0, i64 0), i32* %7, i32* %8)
  store i32 0, i32* %9, align 4
  br label %42

42:                                               ; preds = %63, %40
  %43 = load i32, i32* %9, align 4
  %44 = load i32, i32* %7, align 4
  %45 = icmp slt i32 %43, %44
  br i1 %45, label %46, label %66

46:                                               ; preds = %42
  store i32 0, i32* %10, align 4
  br label %47

47:                                               ; preds = %59, %46
  %48 = load i32, i32* %10, align 4
  %49 = load i32, i32* %8, align 4
  %50 = icmp slt i32 %48, %49
  br i1 %50, label %51, label %62

51:                                               ; preds = %47
  %52 = load i32, i32* %9, align 4
  %53 = sext i32 %52 to i64
  %54 = getelementptr inbounds [100 x [100 x i32]], [100 x [100 x i32]]* %3, i64 0, i64 %53
  %55 = load i32, i32* %10, align 4
  %56 = sext i32 %55 to i64
  %57 = getelementptr inbounds [100 x i32], [100 x i32]* %54, i64 0, i64 %56
  %58 = call i32 (i8*, ...) @__isoc99_scanf(i8* getelementptr inbounds ([3 x i8], [3 x i8]* @.str.1, i64 0, i64 0), i32* %57)
  br label %59

59:                                               ; preds = %51
  %60 = load i32, i32* %10, align 4
  %61 = add nsw i32 %60, 1
  store i32 %61, i32* %10, align 4
  br label %47

62:                                               ; preds = %47
  br label %63

63:                                               ; preds = %62
  %64 = load i32, i32* %9, align 4
  %65 = add nsw i32 %64, 1
  store i32 %65, i32* %9, align 4
  br label %42

66:                                               ; preds = %42
  %67 = load i32, i32* %5, align 4
  store i32 %67, i32* %11, align 4
  %68 = load i32, i32* %8, align 4
  store i32 %68, i32* %12, align 4
  store i32 0, i32* %9, align 4
  br label %69

69:                                               ; preds = %115, %66
  %70 = load i32, i32* %9, align 4
  %71 = load i32, i32* %11, align 4
  %72 = icmp slt i32 %70, %71
  br i1 %72, label %73, label %118

73:                                               ; preds = %69
  store i32 0, i32* %10, align 4
  br label %74

74:                                               ; preds = %111, %73
  %75 = load i32, i32* %10, align 4
  %76 = load i32, i32* %12, align 4
  %77 = icmp slt i32 %75, %76
  br i1 %77, label %78, label %114

78:                                               ; preds = %74
  store i32 0, i32* %13, align 4
  br label %79

79:                                               ; preds = %107, %78
  %80 = load i32, i32* %13, align 4
  %81 = load i32, i32* %6, align 4
  %82 = icmp slt i32 %80, %81
  br i1 %82, label %83, label %110

83:                                               ; preds = %79
  %84 = load i32, i32* %9, align 4
  %85 = sext i32 %84 to i64
  %86 = getelementptr inbounds [100 x [100 x i32]], [100 x [100 x i32]]* %2, i64 0, i64 %85
  %87 = load i32, i32* %13, align 4
  %88 = sext i32 %87 to i64
  %89 = getelementptr inbounds [100 x i32], [100 x i32]* %86, i64 0, i64 %88
  %90 = load i32, i32* %89, align 4
  %91 = load i32, i32* %13, align 4
  %92 = sext i32 %91 to i64
  %93 = getelementptr inbounds [100 x [100 x i32]], [100 x [100 x i32]]* %3, i64 0, i64 %92
  %94 = load i32, i32* %10, align 4
  %95 = sext i32 %94 to i64
  %96 = getelementptr inbounds [100 x i32], [100 x i32]* %93, i64 0, i64 %95
  %97 = load i32, i32* %96, align 4
  %98 = mul nsw i32 %90, %97
  %99 = load i32, i32* %9, align 4
  %100 = sext i32 %99 to i64
  %101 = getelementptr inbounds [100 x [100 x i32]], [100 x [100 x i32]]* %4, i64 0, i64 %100
  %102 = load i32, i32* %10, align 4
  %103 = sext i32 %102 to i64
  %104 = getelementptr inbounds [100 x i32], [100 x i32]* %101, i64 0, i64 %103
  %105 = load i32, i32* %104, align 4
  %106 = add nsw i32 %105, %98
  store i32 %106, i32* %104, align 4
  br label %107

107:                                              ; preds = %83
  %108 = load i32, i32* %13, align 4
  %109 = add nsw i32 %108, 1
  store i32 %109, i32* %13, align 4
  br label %79

110:                                              ; preds = %79
  br label %111

111:                                              ; preds = %110
  %112 = load i32, i32* %10, align 4
  %113 = add nsw i32 %112, 1
  store i32 %113, i32* %10, align 4
  br label %74

114:                                              ; preds = %74
  br label %115

115:                                              ; preds = %114
  %116 = load i32, i32* %9, align 4
  %117 = add nsw i32 %116, 1
  store i32 %117, i32* %9, align 4
  br label %69

118:                                              ; preds = %69
  store i32 0, i32* %9, align 4
  br label %119

119:                                              ; preds = %152, %118
  %120 = load i32, i32* %9, align 4
  %121 = load i32, i32* %11, align 4
  %122 = icmp slt i32 %120, %121
  br i1 %122, label %123, label %155

123:                                              ; preds = %119
  store i32 0, i32* %10, align 4
  br label %124

124:                                              ; preds = %138, %123
  %125 = load i32, i32* %10, align 4
  %126 = load i32, i32* %12, align 4
  %127 = sub nsw i32 %126, 1
  %128 = icmp slt i32 %125, %127
  br i1 %128, label %129, label %141

129:                                              ; preds = %124
  %130 = load i32, i32* %9, align 4
  %131 = sext i32 %130 to i64
  %132 = getelementptr inbounds [100 x [100 x i32]], [100 x [100 x i32]]* %4, i64 0, i64 %131
  %133 = load i32, i32* %10, align 4
  %134 = sext i32 %133 to i64
  %135 = getelementptr inbounds [100 x i32], [100 x i32]* %132, i64 0, i64 %134
  %136 = load i32, i32* %135, align 4
  %137 = call i32 (i8*, ...) @printf(i8* getelementptr inbounds ([4 x i8], [4 x i8]* @.str.2, i64 0, i64 0), i32 %136)
  br label %138

138:                                              ; preds = %129
  %139 = load i32, i32* %10, align 4
  %140 = add nsw i32 %139, 1
  store i32 %140, i32* %10, align 4
  br label %124

141:                                              ; preds = %124
  %142 = load i32, i32* %9, align 4
  %143 = sext i32 %142 to i64
  %144 = getelementptr inbounds [100 x [100 x i32]], [100 x [100 x i32]]* %4, i64 0, i64 %143
  %145 = load i32, i32* %12, align 4
  %146 = sub nsw i32 %145, 1
  %147 = sext i32 %146 to i64
  %148 = getelementptr inbounds [100 x i32], [100 x i32]* %144, i64 0, i64 %147
  %149 = load i32, i32* %148, align 4
  %150 = call i32 (i8*, ...) @printf(i8* getelementptr inbounds ([3 x i8], [3 x i8]* @.str.1, i64 0, i64 0), i32 %149)
  %151 = call i32 (i8*, ...) @printf(i8* getelementptr inbounds ([2 x i8], [2 x i8]* @.str.3, i64 0, i64 0))
  br label %152

152:                                              ; preds = %141
  %153 = load i32, i32* %9, align 4
  %154 = add nsw i32 %153, 1
  store i32 %154, i32* %9, align 4
  br label %119

155:                                              ; preds = %119
  ret i32 0
}

; Function Attrs: argmemonly nounwind willreturn
declare void @llvm.memset.p0i8.i64(i8* nocapture writeonly, i8, i64, i1 immarg) #1

declare dso_local i32 @__isoc99_scanf(i8*, ...) #2

declare dso_local i32 @printf(i8*, ...) #2


!llvm.module.flags = !{!0}
!llvm.ident = !{!1}

!0 = !{i32 1, !"wchar_size", i32 4}
!1 = !{!"clang version 10.0.0-4ubuntu1 "}
